target datalayout = "e-m:e-p270:32:32-p271:32:32-p272:64:64-i64:64-i128:128-f80:128-n8:16:32:64-S128"
target triple = "x86_64-pc-linux-gnu"

%struct.jit_State = type { %struct.GCtrace, ptr, ptr, ptr, ptr, ptr, ptr, i32, i32, i32, i8, i8, %struct.IRType1, i8, %struct.FoldState, ptr, i32, i32, i32, i32, i32, i32, i32, [1 x i32], [5 x %union.TValue], [3 x %union.TValue], ptr, i32, i32, i32, i32, ptr, ptr, i32, i32, i8, ptr, i32, i32, i16, [101 x i16], [258 x i32], [15 x i32], [16 x ptr], [64 x %struct.HotPenalty], i32, [16 x %struct.BPropEntry], i32, %struct.ScEvEntry, ptr, i32, i32, i32, ptr, i32, i32, ptr, ptr, ptr, i64, i64, %union.TValue, ptr, i32, i32 }
%struct.GCtrace = type { %struct.GCRef, i8, i8, i16, i32, i32, %struct.GCRef, ptr, i32, i32, ptr, ptr, %struct.GCRef, %struct.MRef, i32, i32, ptr, i32, i16, i16, i16, i16, i16, i16, i16, i8, i8, i8, i8 }
%struct.GCRef = type { i64 }
%struct.MRef = type { i64 }
%struct.IRType1 = type { i8 }
%struct.FoldState = type { %union.IRIns, [2 x %union.IRIns], [2 x %union.IRIns] }
%union.IRIns = type { %struct.GCRef }
%struct.HotPenalty = type { %struct.MRef, i16, i16 }
%struct.BPropEntry = type { i16, i16, i32 }
%struct.ScEvEntry = type { %struct.MRef, i16, i16, i16, i16, %struct.IRType1, i8 }
%union.TValue = type { i64 }
%struct.anon.1 = type { i16, i16, i16, i16 }
%struct.RecordIndex = type { %union.TValue, %union.TValue, %union.TValue, %union.TValue, ptr, ptr, i32, i32, i32, i32, i32, i32 }
%struct.lua_State = type { %struct.GCRef, i8, i8, i8, i8, %struct.MRef, %struct.GCRef, ptr, ptr, %struct.MRef, %struct.MRef, %struct.GCRef, %struct.GCRef, ptr, i32 }

@.str = private unnamed_addr constant [23 x i8] c"copy of dead GC object\00", align 1
@.str.1 = private unnamed_addr constant [24 x i8] c"store to dead GC object\00", align 1

; Function Attrs: alwaysinline nounwind uwtable
define internal void @setgcVraw(ptr noundef %0, ptr noundef %1, i32 noundef %2) #3 {
  %4 = alloca ptr, align 8
  %5 = alloca ptr, align 8
  %6 = alloca i32, align 4
  store ptr %0, ptr %4, align 8, !tbaa !11
  store ptr %1, ptr %5, align 8, !tbaa !184
  store i32 %2, ptr %6, align 4, !tbaa !9
  %7 = load ptr, ptr %5, align 8, !tbaa !184
  %8 = ptrtoint ptr %7 to i64
  %9 = load i32, ptr %6, align 4, !tbaa !9
  %10 = zext i32 %9 to i64
  %11 = shl i64 %10, 47
  %12 = or i64 %8, %11
  %13 = load ptr, ptr %4, align 8, !tbaa !11
  %14 = getelementptr inbounds nuw %struct.GCRef, ptr %13, i32 0, i32 0
  store i64 %12, ptr %14, align 8, !tbaa !15
  ret void
}

; Function Attrs: alwaysinline nounwind uwtable
define internal void @checklivetv(ptr noundef %0, ptr noundef %1, ptr noundef %2) #3 {
  %4 = alloca ptr, align 8
  %5 = alloca ptr, align 8
  %6 = alloca ptr, align 8
  store ptr %0, ptr %4, align 8, !tbaa !82
  store ptr %1, ptr %5, align 8, !tbaa !11
  store ptr %2, ptr %6, align 8, !tbaa !183
  ret void
}

; Function Attrs: alwaysinline nounwind uwtable
define internal void @lj_ir_set_(ptr noundef %0, i16 noundef zeroext %1, i16 noundef zeroext %2, i16 noundef zeroext %3) #3 {
  %5 = alloca ptr, align 8
  %6 = alloca i16, align 2
  %7 = alloca i16, align 2
  %8 = alloca i16, align 2
  store ptr %0, ptr %5, align 8, !tbaa !4
  store i16 %1, ptr %6, align 2, !tbaa !13
  store i16 %2, ptr %7, align 2, !tbaa !13
  store i16 %3, ptr %8, align 2, !tbaa !13
  %9 = load i16, ptr %6, align 2, !tbaa !13
  %10 = load ptr, ptr %5, align 8, !tbaa !4
  %11 = getelementptr inbounds nuw %struct.jit_State, ptr %10, i32 0, i32 14
  %12 = getelementptr inbounds nuw %struct.FoldState, ptr %11, i32 0, i32 0
  %13 = getelementptr inbounds nuw %struct.anon.1, ptr %12, i32 0, i32 2
  store i16 %9, ptr %13, align 4, !tbaa !15
  %14 = load i16, ptr %7, align 2, !tbaa !13
  %15 = load ptr, ptr %5, align 8, !tbaa !4
  %16 = getelementptr inbounds nuw %struct.jit_State, ptr %15, i32 0, i32 14
  %17 = getelementptr inbounds nuw %struct.FoldState, ptr %16, i32 0, i32 0
  %18 = getelementptr inbounds nuw %struct.anon.1, ptr %17, i32 0, i32 0
  store i16 %14, ptr %18, align 8, !tbaa !15
  %19 = load i16, ptr %8, align 2, !tbaa !13
  %20 = load ptr, ptr %5, align 8, !tbaa !4
  %21 = getelementptr inbounds nuw %struct.jit_State, ptr %20, i32 0, i32 14
  %22 = getelementptr inbounds nuw %struct.FoldState, ptr %21, i32 0, i32 0
  %23 = getelementptr inbounds nuw %struct.anon.1, ptr %22, i32 0, i32 1
  store i16 %19, ptr %23, align 2, !tbaa !15
  ret void
}

; Function Attrs: alwaysinline nounwind uwtable
define internal i32 @itype2irt(ptr noundef %0) #3 {
  %2 = alloca i32, align 4
  %3 = alloca ptr, align 8
  store ptr %0, ptr %3, align 8, !tbaa !11
  %4 = load ptr, ptr %3, align 8, !tbaa !11
  %5 = load i64, ptr %4, align 8, !tbaa !15
  %6 = ashr i64 %5, 47
  %7 = trunc i64 %6 to i32
  %8 = icmp ult i32 %7, -14
  br i1 %8, label %9, label %10

9:                                                ; preds = %1
  store i32 14, ptr %2, align 4
  br label %16

10:                                               ; preds = %1
  %11 = load ptr, ptr %3, align 8, !tbaa !11
  %12 = load i64, ptr %11, align 8, !tbaa !15
  %13 = ashr i64 %12, 47
  %14 = trunc i64 %13 to i32
  %15 = xor i32 %14, -1
  store i32 %15, ptr %2, align 4
  br label %16

16:                                               ; preds = %10, %9
  %17 = load i32, ptr %2, align 4
  ret i32 %17
}

; Function Attrs: alwaysinline nounwind uwtable
define internal void @setgcV(ptr noundef %0, ptr noundef %1, ptr noundef %2, i32 noundef %3) #3 {
  %5 = alloca ptr, align 8
  %6 = alloca ptr, align 8
  %7 = alloca ptr, align 8
  %8 = alloca i32, align 4
  store ptr %0, ptr %5, align 8, !tbaa !82
  store ptr %1, ptr %6, align 8, !tbaa !11
  store ptr %2, ptr %7, align 8, !tbaa !184
  store i32 %3, ptr %8, align 4, !tbaa !9
  %9 = load ptr, ptr %6, align 8, !tbaa !11
  %10 = load ptr, ptr %7, align 8, !tbaa !184
  %11 = load i32, ptr %8, align 4, !tbaa !9
  call void @setgcVraw(ptr noundef %9, ptr noundef %10, i32 noundef %11)
  %12 = load ptr, ptr %5, align 8, !tbaa !82
  %13 = load ptr, ptr %6, align 8, !tbaa !11
  call void @checklivetv(ptr noundef %12, ptr noundef %13, ptr noundef @.str.1)
  ret void
}

; Function Attrs: alwaysinline nounwind uwtable
define internal void @copyTV(ptr noundef %0, ptr noundef %1, ptr noundef %2) #3 {
  %4 = alloca ptr, align 8
  %5 = alloca ptr, align 8
  %6 = alloca ptr, align 8
  store ptr %0, ptr %4, align 8, !tbaa !82
  store ptr %1, ptr %5, align 8, !tbaa !11
  store ptr %2, ptr %6, align 8, !tbaa !11
  %7 = load ptr, ptr %5, align 8, !tbaa !11
  %8 = load ptr, ptr %6, align 8, !tbaa !11
  call void @llvm.memcpy.p0.p0.i64(ptr align 8 %7, ptr align 8 %8, i64 8, i1 false), !tbaa.struct !83
  %9 = load ptr, ptr %4, align 8, !tbaa !82
  %10 = load ptr, ptr %5, align 8, !tbaa !11
  call void @checklivetv(ptr noundef %9, ptr noundef %10, ptr noundef @.str)
  ret void
}

; Function Attrs: alwaysinline nounwind uwtable
define internal void @setintV(ptr noundef %0, i32 noundef %1) #3 {
  %3 = alloca ptr, align 8
  %4 = alloca i32, align 4
  store ptr %0, ptr %3, align 8, !tbaa !11
  store i32 %1, ptr %4, align 4, !tbaa !9
  %5 = load i32, ptr %4, align 4, !tbaa !9
  %6 = sitofp i32 %5 to double
  %7 = load ptr, ptr %3, align 8, !tbaa !11
  store double %6, ptr %7, align 8, !tbaa !15
  ret void
}

; Function Attrs: nounwind uwtable
define internal i32 @sload(ptr noundef %0, i32 noundef %1) #0 {
  %3 = alloca ptr, align 8
  %4 = alloca i32, align 4
  %5 = alloca i32, align 4
  %6 = alloca i32, align 4
  store ptr %0, ptr %3, align 8, !tbaa !4
  store i32 %1, ptr %4, align 4, !tbaa !9
  call void @llvm.lifetime.start.p0(i64 4, ptr %5) #9
  %7 = load ptr, ptr %3, align 8, !tbaa !4
  %8 = getelementptr inbounds nuw %struct.jit_State, ptr %7, i32 0, i32 2
  %9 = load ptr, ptr %8, align 8, !tbaa !51
  %10 = getelementptr inbounds nuw %struct.lua_State, ptr %9, i32 0, i32 7
  %11 = load ptr, ptr %10, align 8, !tbaa !52
  %12 = load i32, ptr %4, align 4, !tbaa !9
  %13 = sext i32 %12 to i64
  %14 = getelementptr inbounds %union.TValue, ptr %11, i64 %13
  %15 = call i32 @itype2irt(ptr noundef %14)
  store i32 %15, ptr %5, align 4, !tbaa !9
  call void @llvm.lifetime.start.p0(i64 4, ptr %6) #9
  %16 = load ptr, ptr %3, align 8, !tbaa !4
  %17 = load i32, ptr %5, align 4, !tbaa !9
  %18 = or i32 128, %17
  %19 = or i32 18176, %18
  %20 = trunc i32 %19 to i16
  %21 = load ptr, ptr %3, align 8, !tbaa !4
  %22 = getelementptr inbounds nuw %struct.jit_State, ptr %21, i32 0, i32 9
  %23 = load i32, ptr %22, align 8, !tbaa !43
  %24 = load i32, ptr %4, align 4, !tbaa !9
  %25 = add nsw i32 %23, %24
  %26 = trunc i32 %25 to i16
  call void @lj_ir_set_(ptr noundef %16, i16 noundef zeroext %20, i16 noundef zeroext %26, i16 noundef zeroext 4)
  %27 = load ptr, ptr %3, align 8, !tbaa !4
  %28 = call i32 @lj_ir_emit(ptr noundef %27)
  store i32 %28, ptr %6, align 4, !tbaa !9
  %29 = load i32, ptr %5, align 4, !tbaa !9
  %30 = icmp ule i32 %29, 2
  br i1 %30, label %31, label %37

31:                                               ; preds = %2
  %32 = load i32, ptr %5, align 4, !tbaa !9
  %33 = sub i32 32767, %32
  %34 = load i32, ptr %5, align 4, !tbaa !9
  %35 = shl i32 %34, 24
  %36 = add i32 %33, %35
  store i32 %36, ptr %6, align 4, !tbaa !9
  br label %37

37:                                               ; preds = %31, %2
  %38 = load i32, ptr %6, align 4, !tbaa !9
  %39 = load ptr, ptr %3, align 8, !tbaa !4
  %40 = getelementptr inbounds nuw %struct.jit_State, ptr %39, i32 0, i32 6
  %41 = load ptr, ptr %40, align 8, !tbaa !50
  %42 = load i32, ptr %4, align 4, !tbaa !9
  %43 = sext i32 %42 to i64
  %44 = getelementptr inbounds i32, ptr %41, i64 %43
  store i32 %38, ptr %44, align 4, !tbaa !9
  %45 = load i32, ptr %6, align 4, !tbaa !9
  call void @llvm.lifetime.end.p0(i64 4, ptr %6) #9
  call void @llvm.lifetime.end.p0(i64 4, ptr %5) #9
  ret i32 %45
}

; Function Attrs: alwaysinline nounwind uwtable
define internal void @settabV(ptr noundef %0, ptr noundef %1, ptr noundef %2) #3 {
  %4 = alloca ptr, align 8
  %5 = alloca ptr, align 8
  %6 = alloca ptr, align 8
  store ptr %0, ptr %4, align 8, !tbaa !82
  store ptr %1, ptr %5, align 8, !tbaa !11
  store ptr %2, ptr %6, align 8, !tbaa !92
  %7 = load ptr, ptr %4, align 8, !tbaa !82
  %8 = load ptr, ptr %5, align 8, !tbaa !11
  %9 = load ptr, ptr %6, align 8, !tbaa !92
  call void @setgcV(ptr noundef %7, ptr noundef %8, ptr noundef %9, i32 noundef -12)
  ret void
}

; Function Attrs: nounwind uwtable
define internal void @rec_tsetm(ptr noundef %0, i32 noundef %1, i32 noundef %2, i32 noundef %3) #0 {
  %5 = alloca ptr, align 8
  %6 = alloca i32, align 4
  %7 = alloca i32, align 4
  %8 = alloca i32, align 4
  %9 = alloca %struct.RecordIndex, align 8
  %10 = alloca ptr, align 8
  %11 = alloca ptr, align 8
  store ptr %0, ptr %5, align 8, !tbaa !4
  store i32 %1, ptr %6, align 4, !tbaa !9
  store i32 %2, ptr %7, align 4, !tbaa !9
  store i32 %3, ptr %8, align 4, !tbaa !9
  call void @llvm.lifetime.start.p0(i64 72, ptr %9) #9
  call void @llvm.lifetime.start.p0(i64 8, ptr %10) #9
  %12 = load ptr, ptr %5, align 8, !tbaa !4
  %13 = getelementptr inbounds nuw %struct.jit_State, ptr %12, i32 0, i32 2
  %14 = load ptr, ptr %13, align 8, !tbaa !51
  %15 = getelementptr inbounds nuw %struct.lua_State, ptr %14, i32 0, i32 7
  %16 = load ptr, ptr %15, align 8, !tbaa !52
  store ptr %16, ptr %10, align 8, !tbaa !11
  call void @llvm.lifetime.start.p0(i64 8, ptr %11) #9
  %17 = load ptr, ptr %10, align 8, !tbaa !11
  %18 = load i32, ptr %6, align 4, !tbaa !9
  %19 = sub i32 %18, 1
  %20 = zext i32 %19 to i64
  %21 = getelementptr inbounds nuw %union.TValue, ptr %17, i64 %20
  %22 = getelementptr inbounds nuw %struct.GCRef, ptr %21, i32 0, i32 0
  %23 = load i64, ptr %22, align 8, !tbaa !15
  %24 = and i64 %23, 140737488355327
  %25 = inttoptr i64 %24 to ptr
  store ptr %25, ptr %11, align 8, !tbaa !92
  %26 = load ptr, ptr %5, align 8, !tbaa !4
  %27 = getelementptr inbounds nuw %struct.jit_State, ptr %26, i32 0, i32 2
  %28 = load ptr, ptr %27, align 8, !tbaa !51
  %29 = getelementptr inbounds nuw %struct.RecordIndex, ptr %9, i32 0, i32 0
  %30 = load ptr, ptr %11, align 8, !tbaa !92
  call void @settabV(ptr noundef %28, ptr noundef %29, ptr noundef %30)
  %31 = load ptr, ptr %5, align 8, !tbaa !4
  %32 = getelementptr inbounds nuw %struct.jit_State, ptr %31, i32 0, i32 6
  %33 = load ptr, ptr %32, align 8, !tbaa !50
  %34 = load i32, ptr %6, align 4, !tbaa !9
  %35 = sub i32 %34, 1
  %36 = zext i32 %35 to i64
  %37 = getelementptr inbounds nuw i32, ptr %33, i64 %36
  %38 = load i32, ptr %37, align 4, !tbaa !9
  %39 = icmp ne i32 %38, 0
  br i1 %39, label %40, label %49

40:                                               ; preds = %4
  %41 = load ptr, ptr %5, align 8, !tbaa !4
  %42 = getelementptr inbounds nuw %struct.jit_State, ptr %41, i32 0, i32 6
  %43 = load ptr, ptr %42, align 8, !tbaa !50
  %44 = load i32, ptr %6, align 4, !tbaa !9
  %45 = sub i32 %44, 1
  %46 = zext i32 %45 to i64
  %47 = getelementptr inbounds nuw i32, ptr %43, i64 %46
  %48 = load i32, ptr %47, align 4, !tbaa !9
  br label %54

49:                                               ; preds = %4
  %50 = load ptr, ptr %5, align 8, !tbaa !4
  %51 = load i32, ptr %6, align 4, !tbaa !9
  %52 = sub i32 %51, 1
  %53 = call i32 @sload(ptr noundef %50, i32 noundef %52)
  br label %54

54:                                               ; preds = %49, %40
  %55 = phi i32 [ %48, %40 ], [ %53, %49 ]
  %56 = getelementptr inbounds nuw %struct.RecordIndex, ptr %9, i32 0, i32 6
  store i32 %55, ptr %56, align 8, !tbaa !56
  %57 = getelementptr inbounds nuw %struct.RecordIndex, ptr %9, i32 0, i32 11
  store i32 0, ptr %57, align 4, !tbaa !100
  br label %58

58:                                               ; preds = %102, %54
  %59 = load i32, ptr %6, align 4, !tbaa !9
  %60 = load i32, ptr %7, align 4, !tbaa !9
  %61 = icmp ult i32 %59, %60
  br i1 %61, label %62, label %107

62:                                               ; preds = %58
  %63 = getelementptr inbounds nuw %struct.RecordIndex, ptr %9, i32 0, i32 1
  %64 = load i32, ptr %8, align 4, !tbaa !9
  call void @setintV(ptr noundef %63, i32 noundef %64)
  %65 = load ptr, ptr %5, align 8, !tbaa !4
  %66 = load i32, ptr %8, align 4, !tbaa !9
  %67 = call i32 @lj_ir_kint(ptr noundef %65, i32 noundef %66)
  %68 = getelementptr inbounds nuw %struct.RecordIndex, ptr %9, i32 0, i32 7
  store i32 %67, ptr %68, align 4, !tbaa !98
  %69 = load ptr, ptr %5, align 8, !tbaa !4
  %70 = getelementptr inbounds nuw %struct.jit_State, ptr %69, i32 0, i32 2
  %71 = load ptr, ptr %70, align 8, !tbaa !51
  %72 = getelementptr inbounds nuw %struct.RecordIndex, ptr %9, i32 0, i32 2
  %73 = load ptr, ptr %10, align 8, !tbaa !11
  %74 = load i32, ptr %6, align 4, !tbaa !9
  %75 = zext i32 %74 to i64
  %76 = getelementptr inbounds nuw %union.TValue, ptr %73, i64 %75
  call void @copyTV(ptr noundef %71, ptr noundef %72, ptr noundef %76)
  %77 = load ptr, ptr %5, align 8, !tbaa !4
  %78 = getelementptr inbounds nuw %struct.jit_State, ptr %77, i32 0, i32 6
  %79 = load ptr, ptr %78, align 8, !tbaa !50
  %80 = load i32, ptr %6, align 4, !tbaa !9
  %81 = zext i32 %80 to i64
  %82 = getelementptr inbounds nuw i32, ptr %79, i64 %81
  %83 = load i32, ptr %82, align 4, !tbaa !9
  %84 = icmp ne i32 %83, 0
  br i1 %84, label %85, label %93

85:                                               ; preds = %62
  %86 = load ptr, ptr %5, align 8, !tbaa !4
  %87 = getelementptr inbounds nuw %struct.jit_State, ptr %86, i32 0, i32 6
  %88 = load ptr, ptr %87, align 8, !tbaa !50
  %89 = load i32, ptr %6, align 4, !tbaa !9
  %90 = zext i32 %89 to i64
  %91 = getelementptr inbounds nuw i32, ptr %88, i64 %90
  %92 = load i32, ptr %91, align 4, !tbaa !9
  br label %97

93:                                               ; preds = %62
  %94 = load ptr, ptr %5, align 8, !tbaa !4
  %95 = load i32, ptr %6, align 4, !tbaa !9
  %96 = call i32 @sload(ptr noundef %94, i32 noundef %95)
  br label %97

97:                                               ; preds = %93, %85
  %98 = phi i32 [ %92, %85 ], [ %96, %93 ]
  %99 = getelementptr inbounds nuw %struct.RecordIndex, ptr %9, i32 0, i32 8
  store i32 %98, ptr %99, align 8, !tbaa !99
  %100 = load ptr, ptr %5, align 8, !tbaa !4
  %101 = call i32 @lj_record_idx(ptr noundef %100, ptr noundef %9)
  br label %102

102:                                              ; preds = %97
  %103 = load i32, ptr %8, align 4, !tbaa !9
  %104 = add nsw i32 %103, 1
  store i32 %104, ptr %8, align 4, !tbaa !9
  %105 = load i32, ptr %6, align 4, !tbaa !9
  %106 = add i32 %105, 1
  store i32 %106, ptr %6, align 4, !tbaa !9
  br label %58, !llvm.loop !149

107:                                              ; preds = %58
  call void @llvm.lifetime.end.p0(i64 8, ptr %11) #9
  call void @llvm.lifetime.end.p0(i64 8, ptr %10) #9
  call void @llvm.lifetime.end.p0(i64 72, ptr %9) #9
  ret void
}