; Function Attrs: nounwind uwtable
define internal fastcc void @rec_tsetm(ptr noundef %0, i32 noundef %1, i32 noundef %2, i32 noundef %3) unnamed_addr #0 {
  %5 = alloca %struct.RecordIndex, align 8
  call void @llvm.lifetime.start.p0(i64 72, ptr nonnull %5) #8
  %6 = getelementptr inbounds nuw i8, ptr %0, i64 128
  %7 = load ptr, ptr %6, align 8, !tbaa !44
  %8 = getelementptr inbounds nuw i8, ptr %7, i64 32
  %9 = load ptr, ptr %8, align 8, !tbaa !45
  %10 = add i32 %1, -1
  %11 = zext i32 %10 to i64
  %12 = getelementptr inbounds nuw %union.TValue, ptr %9, i64 %11
  %13 = load i64, ptr %12, align 8, !tbaa !4
  %14 = and i64 %13, 140737488355327
  %15 = or disjoint i64 %14, -1688849860263936
  store i64 %15, ptr %5, align 8, !tbaa !4
  %16 = getelementptr inbounds nuw i8, ptr %0, i64 160
  %17 = load ptr, ptr %16, align 8, !tbaa !43
  %18 = getelementptr inbounds nuw i32, ptr %17, i64 %11
  %19 = load i32, ptr %18, align 4, !tbaa !37
  %.not = icmp eq i32 %19, 0
  br i1 %.not, label %20, label %43

20:                                               ; preds = %4
  %21 = sext i32 %10 to i64
  %22 = getelementptr inbounds %union.TValue, ptr %9, i64 %21
  %23 = load i64, ptr %22, align 8, !tbaa !4
  %24 = ashr i64 %23, 47
  %25 = icmp ult i64 %24, -14
  %26 = trunc nsw i64 %24 to i32
  %27 = xor i32 %26, -1
  %.0.i.i = select i1 %25, i32 14, i32 %27
  %28 = trunc nuw nsw i32 %.0.i.i to i16
  %29 = or disjoint i16 %28, 18304
  %30 = getelementptr inbounds nuw i8, ptr %0, i64 176
  %31 = load i32, ptr %30, align 8, !tbaa !35
  %32 = add nsw i32 %31, %10
  %33 = trunc i32 %32 to i16
  %34 = getelementptr inbounds nuw i8, ptr %0, i64 184
  %35 = getelementptr inbounds nuw i8, ptr %0, i64 188
  store i16 %29, ptr %35, align 4, !tbaa !4
  store i16 %33, ptr %34, align 8, !tbaa !4
  %36 = getelementptr inbounds nuw i8, ptr %0, i64 186
  store i16 4, ptr %36, align 2, !tbaa !4
  %37 = tail call i32 @lj_ir_emit(ptr noundef nonnull %0) #8
  %38 = icmp samesign ult i32 %.0.i.i, 3
  %39 = mul nuw nsw i32 %.0.i.i, 16777217
  %40 = xor i32 %39, 32767
  %.0.i = select i1 %38, i32 %40, i32 %37
  %41 = load ptr, ptr %16, align 8, !tbaa !43
  %42 = getelementptr inbounds i32, ptr %41, i64 %21
  store i32 %.0.i, ptr %42, align 4, !tbaa !37
  br label %43

43:                                               ; preds = %4, %20
  %44 = phi i32 [ %.0.i, %20 ], [ %19, %4 ]
  %45 = getelementptr inbounds nuw i8, ptr %5, i64 48
  store i32 %44, ptr %45, align 8, !tbaa !49
  %46 = getelementptr inbounds nuw i8, ptr %5, i64 68
  store i32 0, ptr %46, align 4, !tbaa !84
  %47 = icmp ult i32 %1, %2
  br i1 %47, label %.lr.ph, label %._crit_edge

.lr.ph:                                           ; preds = %43
  %48 = getelementptr inbounds nuw i8, ptr %5, i64 8
  %49 = getelementptr inbounds nuw i8, ptr %5, i64 52
  %50 = getelementptr inbounds nuw i8, ptr %5, i64 16
  %51 = getelementptr inbounds nuw i8, ptr %0, i64 176
  %52 = getelementptr inbounds nuw i8, ptr %0, i64 184
  %53 = getelementptr inbounds nuw i8, ptr %0, i64 188
  %54 = getelementptr inbounds nuw i8, ptr %0, i64 186
  %55 = getelementptr inbounds nuw i8, ptr %5, i64 56
  br label %56

56:                                               ; preds = %.lr.ph, %87
  %.034 = phi i32 [ %1, %.lr.ph ], [ %91, %87 ]
  %.02733 = phi i32 [ %3, %.lr.ph ], [ %90, %87 ]
  %57 = sitofp i32 %.02733 to double
  store double %57, ptr %48, align 8, !tbaa !4
  %58 = call i32 @lj_ir_kint(ptr noundef nonnull %0, i32 noundef %.02733) #8
  store i32 %58, ptr %49, align 4, !tbaa !82
  %59 = zext i32 %.034 to i64
  %60 = getelementptr inbounds nuw %union.TValue, ptr %9, i64 %59
  %61 = load i64, ptr %60, align 8, !tbaa !4
  store i64 %61, ptr %50, align 8, !tbaa !4
  %62 = load ptr, ptr %16, align 8, !tbaa !43
  %63 = getelementptr inbounds nuw i32, ptr %62, i64 %59
  %64 = load i32, ptr %63, align 4, !tbaa !37
  %.not30 = icmp eq i32 %64, 0
  br i1 %.not30, label %65, label %87

65:                                               ; preds = %56
  %66 = load ptr, ptr %6, align 8, !tbaa !44
  %67 = getelementptr inbounds nuw i8, ptr %66, i64 32
  %68 = load ptr, ptr %67, align 8, !tbaa !45
  %69 = sext i32 %.034 to i64
  %70 = getelementptr inbounds %union.TValue, ptr %68, i64 %69
  %71 = load i64, ptr %70, align 8, !tbaa !4
  %72 = ashr i64 %71, 47
  %73 = icmp ult i64 %72, -14
  %74 = trunc nsw i64 %72 to i32
  %75 = xor i32 %74, -1
  %.0.i.i31 = select i1 %73, i32 14, i32 %75
  %76 = trunc nuw nsw i32 %.0.i.i31 to i16
  %77 = or disjoint i16 %76, 18304
  %78 = load i32, ptr %51, align 8, !tbaa !35
  %79 = add nsw i32 %78, %.034
  %80 = trunc i32 %79 to i16
  store i16 %77, ptr %53, align 4, !tbaa !4
  store i16 %80, ptr %52, align 8, !tbaa !4
  store i16 4, ptr %54, align 2, !tbaa !4
  %81 = call i32 @lj_ir_emit(ptr noundef nonnull %0) #8
  %82 = icmp samesign ult i32 %.0.i.i31, 3
  %83 = mul nuw nsw i32 %.0.i.i31, 16777217
  %84 = xor i32 %83, 32767
  %.0.i32 = select i1 %82, i32 %84, i32 %81
  %85 = load ptr, ptr %16, align 8, !tbaa !43
  %86 = getelementptr inbounds i32, ptr %85, i64 %69
  store i32 %.0.i32, ptr %86, align 4, !tbaa !37
  br label %87

87:                                               ; preds = %56, %65
  %88 = phi i32 [ %.0.i32, %65 ], [ %64, %56 ]
  store i32 %88, ptr %55, align 8, !tbaa !83
  %89 = call i32 @lj_record_idx(ptr noundef nonnull %0, ptr noundef nonnull %5)
  %90 = add nsw i32 %.02733, 1
  %91 = add i32 %.034, 1
  %exitcond.not = icmp eq i32 %91, %2
  br i1 %exitcond.not, label %._crit_edge, label %56, !llvm.loop !152

._crit_edge:                                      ; preds = %87, %43
  call void @llvm.lifetime.end.p0(i64 72, ptr nonnull %5) #8
  ret void
}